target datalayout = "e-m:e-p270:32:32-p271:32:32-p272:64:64-i64:64-i128:128-f80:128-n8:16:32:64-S128"
target triple = "x86_64-unknown-linux-gnu"

%"class.node::inspector::ServerSocket" = type <{ %struct.uv_tcp_s, ptr, i32, [4 x i8] }>
%struct.uv_tcp_s = type { ptr, ptr, i32, ptr, %struct.uv__queue, %union.anon.11, ptr, i32, i64, ptr, ptr, ptr, ptr, %struct.uv__io_s, %struct.uv__queue, %struct.uv__queue, ptr, i32, i32, ptr }
%union.anon.11 = type { [4 x ptr] }
%struct.uv__io_s = type { ptr, %struct.uv__queue, %struct.uv__queue, i32, i32, i32 }
%struct.uv__queue = type { ptr, ptr }
%"class.node::ContainerOfHelper" = type { ptr }

; Function Attrs: mustprogress nounwind uwtable
define linkonce_odr dso_local noundef i64 @_ZN4node8OffsetOfI8uv_tcp_sNS_9inspector12ServerSocketEEEmMT0_T_(i64 %field) #0 comdat {
entry:
  %field.addr = alloca i64, align 8
  store i64 %field, ptr %field.addr, align 8
  %0 = load i64, ptr %field.addr, align 8
  %memptr.offset = getelementptr inbounds i8, ptr null, i64 %0
  %1 = ptrtoint ptr %memptr.offset to i64
  ret i64 %1
}

; Function Attrs: mustprogress nounwind uwtable
define linkonce_odr dso_local void @_ZN4node17ContainerOfHelperI8uv_tcp_sNS_9inspector12ServerSocketEEC2EMS3_S1_PS1_(ptr noundef nonnull align 8 dereferenceable(8) %this, i64 %field, ptr noundef %pointer) unnamed_addr #0 comdat align 2 {
entry:
  %this.addr = alloca ptr, align 8
  %field.addr = alloca i64, align 8
  %pointer.addr = alloca ptr, align 8
  store ptr %this, ptr %this.addr, align 8
  store i64 %field, ptr %field.addr, align 8
  store ptr %pointer, ptr %pointer.addr, align 8
  %this1 = load ptr, ptr %this.addr, align 8
  %pointer_ = getelementptr inbounds %"class.node::ContainerOfHelper", ptr %this1, i32 0, i32 0
  %0 = load ptr, ptr %pointer.addr, align 8
  %1 = ptrtoint ptr %0 to i64
  %2 = load i64, ptr %field.addr, align 8
  %call = call noundef i64 @_ZN4node8OffsetOfI8uv_tcp_sNS_9inspector12ServerSocketEEEmMT0_T_(i64 %2)
  %sub = sub i64 %1, %call
  %3 = inttoptr i64 %sub to ptr
  store ptr %3, ptr %pointer_, align 8
  ret void
}

; Function Attrs: mustprogress nounwind uwtable
define linkonce_odr dso_local noundef ptr @_ZNK4node17ContainerOfHelperI8uv_tcp_sNS_9inspector12ServerSocketEEcvPT_IS3_EEv(ptr noundef nonnull align 8 dereferenceable(8) %this) #0 comdat align 2 {
entry:
  %this.addr = alloca ptr, align 8
  store ptr %this, ptr %this.addr, align 8
  %this1 = load ptr, ptr %this.addr, align 8
  %pointer_ = getelementptr inbounds %"class.node::ContainerOfHelper", ptr %this1, i32 0, i32 0
  %0 = load ptr, ptr %pointer_, align 8
  ret ptr %0
}

; Function Attrs: mustprogress nounwind uwtable
define linkonce_odr dso_local ptr @_ZN4node11ContainerOfI8uv_tcp_sNS_9inspector12ServerSocketEEENS_17ContainerOfHelperIT_T0_EEMS6_S5_PS5_(i64 %field, ptr noundef %pointer) #0 comdat {
entry:
  %retval = alloca %"class.node::ContainerOfHelper", align 8
  %field.addr = alloca i64, align 8
  %pointer.addr = alloca ptr, align 8
  store i64 %field, ptr %field.addr, align 8
  store ptr %pointer, ptr %pointer.addr, align 8
  %0 = load i64, ptr %field.addr, align 8
  %1 = load ptr, ptr %pointer.addr, align 8
  call void @_ZN4node17ContainerOfHelperI8uv_tcp_sNS_9inspector12ServerSocketEEC2EMS3_S1_PS1_(ptr noundef nonnull align 8 dereferenceable(8) %retval, i64 %0, ptr noundef %1)
  %coerce.dive = getelementptr inbounds %"class.node::ContainerOfHelper", ptr %retval, i32 0, i32 0
  %2 = load ptr, ptr %coerce.dive, align 8
  ret ptr %2
}

; Function Attrs: mustprogress nounwind uwtable
define linkonce_odr dso_local noundef ptr @_ZN4node9inspector12ServerSocket13FromTcpSocketI11uv_stream_sEEPS1_PT_(ptr noundef %socket) #0 comdat align 2 {
entry:
  %socket.addr = alloca ptr, align 8
  %ref.tmp = alloca %"class.node::ContainerOfHelper", align 8
  store ptr %socket, ptr %socket.addr, align 8
  %0 = load ptr, ptr %socket.addr, align 8
  %call = call ptr @_ZN4node11ContainerOfI8uv_tcp_sNS_9inspector12ServerSocketEEENS_17ContainerOfHelperIT_T0_EEMS6_S5_PS5_(i64 0, ptr noundef %0)
  %coerce.dive = getelementptr inbounds %"class.node::ContainerOfHelper", ptr %ref.tmp, i32 0, i32 0
  store ptr %call, ptr %coerce.dive, align 8
  %call1 = call noundef ptr @_ZNK4node17ContainerOfHelperI8uv_tcp_sNS_9inspector12ServerSocketEEcvPT_IS3_EEv(ptr noundef nonnull align 8 dereferenceable(8) %ref.tmp)
  ret ptr %call1
}

; Function Attrs: mustprogress nounwind uwtable
define dso_local void @_ZN4node9inspector12ServerSocket23SocketConnectedCallbackEP11uv_stream_si(ptr noundef %tcp_socket, i32 noundef %status) #0 align 2 {
entry:
  %tcp_socket.addr = alloca ptr, align 8
  %status.addr = alloca i32, align 4
  %server_socket = alloca ptr, align 8
  store ptr %tcp_socket, ptr %tcp_socket.addr, align 8
  store i32 %status, ptr %status.addr, align 4
  %0 = load i32, ptr %status.addr, align 4
  %cmp = icmp eq i32 %0, 0
  br i1 %cmp, label %if.then, label %if.end

if.then:                                          ; preds = %entry
  %1 = load ptr, ptr %tcp_socket.addr, align 8
  %call = call noundef ptr @_ZN4node9inspector12ServerSocket13FromTcpSocketI11uv_stream_sEEPS1_PT_(ptr noundef %1)
  store ptr %call, ptr %server_socket, align 8
  %2 = load ptr, ptr %server_socket, align 8
  %server_ = getelementptr inbounds %"class.node::inspector::ServerSocket", ptr %2, i32 0, i32 1
  %3 = load ptr, ptr %server_, align 8
  %4 = load ptr, ptr %server_socket, align 8
  %port_ = getelementptr inbounds %"class.node::inspector::ServerSocket", ptr %4, i32 0, i32 2
  %5 = load i32, ptr %port_, align 8
  %6 = load ptr, ptr %tcp_socket.addr, align 8
  call void @_ZN4node9inspector21InspectorSocketServer6AcceptEiP11uv_stream_s(ptr noundef nonnull align 8 dereferenceable(148) %3, i32 noundef %5, ptr noundef %6)
  br label %if.end

if.end:                                           ; preds = %if.then, %entry
  ret void
}