; Function Attrs: mustprogress nounwind uwtable
define dso_local void @_ZN4node9inspector12ServerSocket23SocketConnectedCallbackEP11uv_stream_si(ptr noundef %tcp_socket, i32 noundef %status) #0 align 2 {
entry:
  %cmp = icmp eq i32 %status, 0
  br i1 %cmp, label %if.then, label %if.end

if.then:                                          ; preds = %entry
  %server_ = getelementptr inbounds i8, ptr %tcp_socket, i64 248
  %0 = load ptr, ptr %server_, align 8
  %port_ = getelementptr inbounds i8, ptr %tcp_socket, i64 256
  %1 = load i32, ptr %port_, align 8
  tail call void @_ZN4node9inspector21InspectorSocketServer6AcceptEiP11uv_stream_s(ptr noundef nonnull align 8 dereferenceable(148) %0, i32 noundef %1, ptr noundef %tcp_socket)
  br label %if.end

if.end:                                           ; preds = %if.then, %entry
  ret void
}